{
   libTMVA
   Memcheck:Leak
   ...
   fun:_GLOBAL__I_Method*.cxx
   obj:*libTMVA.so
}
{
   TRecoEvents
   Memcheck:Leak
   fun:_Znam
   fun:_ZN7TString7ReplaceEiiPKci
   fun:_ZN6TNamed7SetNameEPKc
   fun:_ZN10TBaseClassC1EPvP6TClass
   fun:_ZN5TCint23CreateListOfBaseClassesEP6TClass
   fun:_ZN6TClass14GetListOfBasesEv
   fun:_ZN6TClass12GetBaseClassEPKS_
   fun:_ZNK6TClass12InheritsFromEPKS_
   fun:_ZN12TClonesArray8SetClassEPK6TClassi
   fun:_ZN12TClonesArrayC1EPK6TClassib
   fun:_ZN11TRecoVEventC2EP6TClassS1_
   fun:_ZN21TReco*EventC1Ev
}
{
   TRecoVEvent
   Memcheck:Leak
   fun:_Znwm
   fun:_ZNSs4_Rep9_S_createEmmRKSaIcE
   fun:_ZNSs9_M_mutateEmmm
   fun:_ZNSs15_M_replace_safeEmmPKcm
   fun:_ZN9TClassRef6AssignEP6TClass
   fun:_ZN10TBaseClass15GetClassPointerEb
   fun:_ZN6TClass12GetBaseClassEPKS_
   fun:_ZNK6TClass12InheritsFromEPKS_
   fun:_ZN12TClonesArray8SetClassEPK6TClassi
   fun:_ZN12TClonesArrayC1EPK6TClassib
   fun:_ZN15TDetectorVEventC2EP6TClass
   fun:_ZN11TRecoVEventC2EP6TClassS1_
}
{
   TBranchElement_ShowMember
   Memcheck:Leak
   fun:_Znwm
   fun:_ZN8TStorage11ObjectAllocEm
   fun:_ZN19TGenCollectionProxyC2ERKN4ROOT20TCollectionProxyInfoEP6TClass
   fun:_ZN22TGenCollectionStreamerC1ERKN4ROOT20TCollectionProxyInfoEP6TClass
   fun:_ZN23TCollectionProxyFactory19GenExplicitStreamerERKN4ROOT20TCollectionProxyInfoEP6TClass
   fun:_ZN23TCollectionProxyFactory24GenExplicitClassStreamerERKN4ROOT20TCollectionProxyInfoEP6TClass
   fun:_ZN6TClass18SetCollectionProxyERKN4ROOT20TCollectionProxyInfoE
   fun:_ZN4ROOT17TGenericClassInfo8GetClassEv
   fun:_ZNK5TROOT9LoadClassEPKcb
   fun:_ZN6TClass8GetClassEPKcbb
   fun:_ZN14TBuildRealData7InspectEP6TClassPKcS3_PKv
   fun:_ZN14TBranchElement11ShowMembersER16TMemberInspector
}
{
   TBranchElement_GetEntry
   Memcheck:Leak
   fun:_Znwm
   fun:_ZN8TStorage11ObjectAllocEm
   fun:_ZN4ROOTL12new_TRandom3EPv
   fun:_ZNK6TClass3NewENS_8ENewTypeE
   fun:_ZN11TBufferFile13ReadObjectAnyEPK6TClass
   fun:_ZN11TBufferFile13ReadFastArrayEPPvPK6TClassibP15TMemberStreamerS4_
   fun:_ZN13TStreamerInfo10ReadBufferIPPcEEiR7TBufferRKT_iiii
   fun:_ZN20TStreamerInfoActions17GenericReadActionER7TBufferPvPKNS_14TConfigurationE
   fun:_ZN11TBufferFile13ApplySequenceERKN20TStreamerInfoActions15TActionSequenceEPv
   fun:_ZN14TBranchElement16ReadLeavesMemberER7TBuffer
   fun:_ZN7TBranch8GetEntryExi
   fun:_ZN14TBranchElement8GetEntryExi
}
{
   TClass_GetClass
   Memcheck:Leak
   fun:_Znam
   fun:_ZN8TStorage5AllocEm
   fun:_ZN9TObjArray4InitEii
   fun:_ZN9TObjArrayC1Eii
   fun:_ZN19TGenCollectionProxyC2ERKN4ROOT20TCollectionProxyInfoEP6TClass
   fun:_ZN22TGenCollectionStreamerC1ERKN4ROOT20TCollectionProxyInfoEP6TClass
   fun:_ZN23TCollectionProxyFactory19GenExplicitStreamerERKN4ROOT20TCollectionProxyInfoEP6TClass
   fun:_ZN23TCollectionProxyFactory24GenExplicitClassStreamerERKN4ROOT20TCollectionProxyInfoEP6TClass
   fun:_ZN6TClass18SetCollectionProxyERKN4ROOT20TCollectionProxyInfoE
   fun:_ZN4ROOT17TGenericClassInfo8GetClassEv
   fun:_ZNK5TROOT9LoadClassEPKcb
   fun:_ZN6TClass8GetClassEPKcbb
}
{
   TROOT_LoadClass
   Memcheck:Leak
   ...
   fun:_ZNK5TROOT9LoadClassEPKcb
}
{
   TBuffer_ApplySequence
   Memcheck:Leak
   fun:_Znwm
   fun:_ZN8TStorage11ObjectAllocEm
   fun:_ZN7TObjectnwEm
   fun:_ZN4ROOTL15new_TGeoElementEPv
   fun:_ZNK6TClass3NewENS_8ENewTypeE
   fun:_ZN11TBufferFile13ReadObjectAnyEPK6TClass
   fun:_ZN9TObjArray8StreamerER7TBuffer
   fun:_ZN11TBufferFile13ReadObjectAnyEPK6TClass
   fun:_ZN11TBufferFile13ReadFastArrayEPPvPK6TClassibP15TMemberStreamerS4_
   fun:_ZN13TStreamerInfo10ReadBufferIPPcEEiR7TBufferRKT_iiii
   fun:_ZN20TStreamerInfoActions17GenericReadActionER7TBufferPvPKNS_14TConfigurationE
   fun:_ZN11TBufferFile13ApplySequenceERKN20TStreamerInfoActions15TActionSequenceEPv
}
{
   TBuffer_ReadClassBuffer
   Memcheck:Leak
   fun:_Zn?m
   ...
   fun:_ZN13TStreamerInfo10ReadBufferIPPcEEiR7TBufferRKT_iiii
   fun:_ZN20TStreamerInfoActions17GenericReadActionER7TBufferPvPKNS_14TConfigurationE
   fun:_ZN11TBufferFile13ApplySequenceERKN20TStreamerInfoActions15TActionSequenceEPv
   fun:_ZN11TBufferFile15ReadClassBufferEPK6TClassPvijjS2_
}
{
   TBranchElement_GetEntry
   Memcheck:Leak
   fun:_Znwm
   ...
   fun:_ZN19TGenCollectionProxy12InitializeExEb
   ...
   fun:_ZN22TGenCollectionStreamer17ReadBufferDefaultER7TBufferPvPK6TClass
   fun:_ZN11TBufferFile13ReadFastArrayEPvPK6TClassiP15TMemberStreamerS3_
   fun:_ZN13TStreamerInfo10ReadBufferIPPcEEiR7TBufferRKT_iiii
   fun:_ZN20TStreamerInfoActions15VectorPtrLooper11GenericReadER7TBufferPvPKvPKNS_14TConfigurationE
   fun:_ZN11TBufferFile19ApplySequenceVecPtrERKN20TStreamerInfoActions15TActionSequenceEPvS4_
   fun:_ZN14TBranchElement22ReadLeavesClonesMemberER7TBuffer
   fun:_ZN7TBranch8GetEntryExi
   fun:_ZN14TBranchElement8GetEntryExi
   ...
}
{
   BuildRealData_Inspect
   Memcheck:Leak
   fun:_Znwm
   fun:_ZN8TStorage11ObjectAllocEm
   fun:_ZN19TGenCollectionProxyC2ERKN4ROOT20TCollectionProxyInfoEP6TClass
   fun:_ZN22TGenCollectionStreamerC1ERKN4ROOT20TCollectionProxyInfoEP6TClass
   fun:_ZN23TCollectionProxyFactory19GenExplicitStreamerERKN4ROOT20TCollectionProxyInfoEP6TClass
   fun:_ZN23TCollectionProxyFactory24GenExplicitClassStreamerERKN4ROOT20TCollectionProxyInfoEP6TClass
   fun:_ZN6TClass18SetCollectionProxyERKN4ROOT20TCollectionProxyInfoE
   fun:_ZN4ROOT17TGenericClassInfo8GetClassEv
   fun:_ZN4ROOTL44maplElongcOTGeoNavigatorArraymUgR_DictionaryEv
   fun:_ZNK5TROOT9LoadClassEPKcb
   fun:_ZN6TClass8GetClassEPKcbb
   fun:_ZN14TBuildRealData7InspectEP6TClassPKcS3_PKv
}
{
   TBaseClass_GetClassPointer
   Memcheck:Leak
   fun:malloc
   fun:G__memfunc_setup_imp
   fun:_ZL27G__setup_memfuncTRecoVEventv
   fun:G__incsetup_memfunc
   fun:_ZN4Cint12G__ClassInfo9HasMethodEPKc
   fun:_ZNK5TCint19ClassInfo_HasMethodEPvPKc
   fun:_ZNK6TClass8PropertyEv
   fun:_ZNK6TClass9IsForeignEv
   fun:_ZN6TClass13PostLoadCheckEv
   fun:_ZNK5TROOT9LoadClassEPKcb
   fun:_ZN6TClass8GetClassEPKcbb
   fun:_ZN10TBaseClass15GetClassPointerEb
}
{
   TClass_PostLoadCheck
   Memcheck:Leak
   fun:malloc
   fun:G__memfunc_setup_imp
   fun:_ZL24G__setup_memfuncTAttAxisv
   fun:G__incsetup_memfunc
   fun:G__memfunc_setup_imp
   fun:_ZL21G__setup_memfuncTAxisv
   fun:G__incsetup_memfunc
   fun:_ZN4Cint12G__ClassInfo9HasMethodEPKc
   fun:_ZNK5TCint19ClassInfo_HasMethodEPvPKc
   fun:_ZNK6TClass8PropertyEv
   fun:_ZNK6TClass9IsForeignEv
   fun:_ZN6TClass13PostLoadCheckEv
}


{
   New_Event
   Memcheck:Leak
   fun:_Znwm
   fun:_ZN8TStorage11ObjectAllocEm
   fun:_ZN5EventC1Ev
   fun:_ZN9IOHandlerC1Ev
   fun:_ZN12BaseAnalysisC1Ev
   fun:main
}
{
   GettingBranch
   Memcheck:Leak
   fun:_Znwm
   fun:_ZN8TStorage11ObjectAllocEm
   fun:_ZN5EventC1Ev
   fun:_ZN4ROOTL9new_EventEPv
   fun:_ZNK6TClass3NewENS_8ENewTypeE
   fun:_ZN6TClass13BuildRealDataEPvb
   fun:_ZN13TStreamerInfo8BuildOldEv
   fun:_ZNK6TClass15GetStreamerInfoEi
   fun:_ZN14TBranchElement8InitInfoEv
   fun:_ZN14TBranchElement10SetAddressEPv
   fun:_ZN6TChain16SetBranchAddressEPKcPvPP7TBranch
   fun:_ZN9IOHandler11FillMCTruthEN10AnalysisFW14VerbosityLevelE
}
{
   NotSoTemporaryTreesInGetRealInfo
   Memcheck:Leak
   fun:_Znwm
   fun:_ZN8MCSimple12GetRealInfosEP5EventN10AnalysisFW14VerbosityLevelE
   fun:_ZN12BaseAnalysis7ProcessEii
   fun:main
}
{
   IncrementingIteratorAfterErasingCurrentElement
   Memcheck:Addr8
   fun:_ZSt18_Rb_tree_incrementPSt18_Rb_tree_node_base
   fun:_ZN8MCSimple9ReplaceIDERSt8multimapISt4pairIiiEiSt4lessIS2_ESaIS1_IKS2_iEEEii
   fun:_ZN8MCSimple12GetRealInfosEP5EventN10AnalysisFW14VerbosityLevelE
   fun:_ZN12BaseAnalysis7ProcessEii
   fun:main
}